target datalayout = "e-m:e-p270:32:32-p271:32:32-p272:64:64-i64:64-i128:128-f80:128-n8:16:32:64-S128"
target triple = "x86_64-pc-linux-gnu"

%struct.lzma_lz_decoder = type { ptr, ptr, ptr, ptr, ptr }
%struct.lzma_options_lzma = type { i32, ptr, i32, i32, i32, i32, i32, i32, i32, i32, i32, i32, i32, i32, i32, i32, i32, i32, i32, i32, i32, i32, ptr, ptr }
%struct.lzma_lz_options = type { i64, ptr, i64 }
%struct.lzma_range_decoder = type { i32, i32, i32 }
%struct.lzma_lzma1_decoder = type { [16 x [768 x i16]], [12 x [16 x i16]], [12 x i16], [12 x i16], [12 x i16], [12 x i16], [12 x [16 x i16]], [4 x [64 x i16]], [114 x i16], [16 x i16], %struct.lzma_length_decoder, %struct.lzma_length_decoder, %struct.lzma_range_decoder, i32, i32, i32, i32, i32, i32, i32, i32, i64, i32, ptr, i32, i32, i32, i32 }
%struct.lzma_length_decoder = type { i16, i16, [16 x [8 x i16]], [16 x [8 x i16]], [256 x i16] }

; Function Attrs: nounwind uwtable
define internal void @lzma_decoder_uncompressed(ptr noundef %0, i64 noundef %1) #0 {
  %3 = alloca ptr, align 8
  %4 = alloca i64, align 8
  %5 = alloca ptr, align 8
  store ptr %0, ptr %3, align 8
  store i64 %1, ptr %4, align 8
  %6 = load ptr, ptr %3, align 8
  store ptr %6, ptr %5, align 8
  %7 = load i64, ptr %4, align 8
  %8 = load ptr, ptr %5, align 8
  %9 = getelementptr inbounds %struct.lzma_lzma1_decoder, ptr %8, i32 0, i32 21
  store i64 %7, ptr %9, align 8
  ret void
}

; Function Attrs: nounwind uwtable
define dso_local i32 @lzma_lzma_decoder_create(ptr noundef %0, ptr noundef %1, ptr noundef %2, ptr noundef %3) #0 {
  %5 = alloca i32, align 4
  %6 = alloca ptr, align 8
  %7 = alloca ptr, align 8
  %8 = alloca ptr, align 8
  %9 = alloca ptr, align 8
  %10 = alloca ptr, align 8
  store ptr %0, ptr %6, align 8
  store ptr %1, ptr %7, align 8
  store ptr %2, ptr %8, align 8
  store ptr %3, ptr %9, align 8
  %11 = load ptr, ptr %6, align 8
  %12 = getelementptr inbounds %struct.lzma_lz_decoder, ptr %11, i32 0, i32 0
  %13 = load ptr, ptr %12, align 8
  %14 = icmp eq ptr %13, null
  br i1 %14, label %15, label %32

15:                                               ; preds = %4
  %16 = load ptr, ptr %7, align 8
  %17 = call noalias ptr @lzma_alloc(i64 noundef 28352, ptr noundef %16)
  %18 = load ptr, ptr %6, align 8
  %19 = getelementptr inbounds %struct.lzma_lz_decoder, ptr %18, i32 0, i32 0
  store ptr %17, ptr %19, align 8
  %20 = load ptr, ptr %6, align 8
  %21 = getelementptr inbounds %struct.lzma_lz_decoder, ptr %20, i32 0, i32 0
  %22 = load ptr, ptr %21, align 8
  %23 = icmp eq ptr %22, null
  br i1 %23, label %24, label %25

24:                                               ; preds = %15
  store i32 5, ptr %5, align 4
  br label %51

25:                                               ; preds = %15
  %26 = load ptr, ptr %6, align 8
  %27 = getelementptr inbounds %struct.lzma_lz_decoder, ptr %26, i32 0, i32 1
  store ptr @lzma_decode, ptr %27, align 8
  %28 = load ptr, ptr %6, align 8
  %29 = getelementptr inbounds %struct.lzma_lz_decoder, ptr %28, i32 0, i32 2
  store ptr @lzma_decoder_reset, ptr %29, align 8
  %30 = load ptr, ptr %6, align 8
  %31 = getelementptr inbounds %struct.lzma_lz_decoder, ptr %30, i32 0, i32 3
  store ptr @lzma_decoder_uncompressed, ptr %31, align 8
  br label %32

32:                                               ; preds = %25, %4
  %33 = load ptr, ptr %8, align 8
  store ptr %33, ptr %10, align 8
  %34 = load ptr, ptr %10, align 8
  %35 = getelementptr inbounds %struct.lzma_options_lzma, ptr %34, i32 0, i32 0
  %36 = load i32, ptr %35, align 8
  %37 = zext i32 %36 to i64
  %38 = load ptr, ptr %9, align 8
  %39 = getelementptr inbounds %struct.lzma_lz_options, ptr %38, i32 0, i32 0
  store i64 %37, ptr %39, align 8
  %40 = load ptr, ptr %10, align 8
  %41 = getelementptr inbounds %struct.lzma_options_lzma, ptr %40, i32 0, i32 1
  %42 = load ptr, ptr %41, align 8
  %43 = load ptr, ptr %9, align 8
  %44 = getelementptr inbounds %struct.lzma_lz_options, ptr %43, i32 0, i32 1
  store ptr %42, ptr %44, align 8
  %45 = load ptr, ptr %10, align 8
  %46 = getelementptr inbounds %struct.lzma_options_lzma, ptr %45, i32 0, i32 2
  %47 = load i32, ptr %46, align 8
  %48 = zext i32 %47 to i64
  %49 = load ptr, ptr %9, align 8
  %50 = getelementptr inbounds %struct.lzma_lz_options, ptr %49, i32 0, i32 2
  store i64 %48, ptr %50, align 8
  store i32 0, ptr %5, align 4
  br label %51

51:                                               ; preds = %32, %24
  %52 = load i32, ptr %5, align 4
  ret i32 %52
}

; Function Attrs: nounwind uwtable
define internal zeroext i1 @is_lclppb_valid(ptr noundef %0) #0 {
  %2 = alloca ptr, align 8
  store ptr %0, ptr %2, align 8
  %3 = load ptr, ptr %2, align 8
  %4 = getelementptr inbounds %struct.lzma_options_lzma, ptr %3, i32 0, i32 3
  %5 = load i32, ptr %4, align 4
  %6 = icmp ule i32 %5, 4
  br i1 %6, label %7, label %26

7:                                                ; preds = %1
  %8 = load ptr, ptr %2, align 8
  %9 = getelementptr inbounds %struct.lzma_options_lzma, ptr %8, i32 0, i32 4
  %10 = load i32, ptr %9, align 8
  %11 = icmp ule i32 %10, 4
  br i1 %11, label %12, label %26

12:                                               ; preds = %7
  %13 = load ptr, ptr %2, align 8
  %14 = getelementptr inbounds %struct.lzma_options_lzma, ptr %13, i32 0, i32 3
  %15 = load i32, ptr %14, align 4
  %16 = load ptr, ptr %2, align 8
  %17 = getelementptr inbounds %struct.lzma_options_lzma, ptr %16, i32 0, i32 4
  %18 = load i32, ptr %17, align 8
  %19 = add i32 %15, %18
  %20 = icmp ule i32 %19, 4
  br i1 %20, label %21, label %26

21:                                               ; preds = %12
  %22 = load ptr, ptr %2, align 8
  %23 = getelementptr inbounds %struct.lzma_options_lzma, ptr %22, i32 0, i32 5
  %24 = load i32, ptr %23, align 4
  %25 = icmp ule i32 %24, 4
  br label %26

26:                                               ; preds = %21, %12, %7, %1
  %27 = phi i1 [ false, %12 ], [ false, %7 ], [ false, %1 ], [ %25, %21 ]
  ret i1 %27
}

; Function Attrs: nounwind uwtable
define internal i32 @lzma_decoder_init(ptr noundef %0, ptr noundef %1, ptr noundef %2, ptr noundef %3) #0 {
  %5 = alloca i32, align 4
  %6 = alloca ptr, align 8
  %7 = alloca ptr, align 8
  %8 = alloca ptr, align 8
  %9 = alloca ptr, align 8
  %10 = alloca i32, align 4
  store ptr %0, ptr %6, align 8
  store ptr %1, ptr %7, align 8
  store ptr %2, ptr %8, align 8
  store ptr %3, ptr %9, align 8
  %11 = load ptr, ptr %8, align 8
  %12 = call zeroext i1 @is_lclppb_valid(ptr noundef %11)
  br i1 %12, label %14, label %13

13:                                               ; preds = %4
  store i32 11, ptr %5, align 4
  br label %34

14:                                               ; preds = %4
  br label %15

15:                                               ; preds = %14
  %16 = load ptr, ptr %6, align 8
  %17 = load ptr, ptr %7, align 8
  %18 = load ptr, ptr %8, align 8
  %19 = load ptr, ptr %9, align 8
  %20 = call i32 @lzma_lzma_decoder_create(ptr noundef %16, ptr noundef %17, ptr noundef %18, ptr noundef %19)
  store i32 %20, ptr %10, align 4
  %21 = load i32, ptr %10, align 4
  %22 = icmp ne i32 %21, 0
  br i1 %22, label %23, label %25

23:                                               ; preds = %15
  %24 = load i32, ptr %10, align 4
  store i32 %24, ptr %5, align 4
  br label %34

25:                                               ; preds = %15
  br label %26

26:                                               ; preds = %25
  %27 = load ptr, ptr %6, align 8
  %28 = getelementptr inbounds %struct.lzma_lz_decoder, ptr %27, i32 0, i32 0
  %29 = load ptr, ptr %28, align 8
  %30 = load ptr, ptr %8, align 8
  call void @lzma_decoder_reset(ptr noundef %29, ptr noundef %30)
  %31 = load ptr, ptr %6, align 8
  %32 = getelementptr inbounds %struct.lzma_lz_decoder, ptr %31, i32 0, i32 0
  %33 = load ptr, ptr %32, align 8
  call void @lzma_decoder_uncompressed(ptr noundef %33, i64 noundef -1)
  store i32 0, ptr %5, align 4
  br label %34

34:                                               ; preds = %26, %23, %13
  %35 = load i32, ptr %5, align 4
  ret i32 %35
}