; Function Attrs: nounwind uwtable
define internal range(i32 0, 12) i32 @lzma_decoder_init(ptr noundef captures(none) %0, ptr noundef %1, ptr noundef readonly captures(none) %2, ptr noundef writeonly captures(none) %3) #0 {
  %5 = getelementptr inbounds nuw i8, ptr %2, i64 20
  %6 = load i32, ptr %5, align 4
  %7 = icmp ult i32 %6, 5
  br i1 %7, label %8, label %lzma_lzma_decoder_create.exit

8:                                                ; preds = %4
  %9 = getelementptr inbounds nuw i8, ptr %2, i64 24
  %10 = load i32, ptr %9, align 8
  %11 = icmp ult i32 %10, 5
  %12 = add nuw nsw i32 %10, %6
  %13 = icmp ult i32 %12, 5
  %or.cond.i = select i1 %11, i1 %13, i1 false
  br i1 %or.cond.i, label %is_lclppb_valid.exit, label %lzma_lzma_decoder_create.exit

is_lclppb_valid.exit:                             ; preds = %8
  %14 = getelementptr inbounds nuw i8, ptr %2, i64 28
  %15 = load i32, ptr %14, align 4
  %16 = icmp ult i32 %15, 5
  br i1 %16, label %17, label %lzma_lzma_decoder_create.exit

17:                                               ; preds = %is_lclppb_valid.exit
  %18 = load ptr, ptr %0, align 8
  %19 = icmp eq ptr %18, null
  br i1 %19, label %20, label %27

20:                                               ; preds = %17
  %21 = tail call noalias ptr @lzma_alloc(i64 noundef 28352, ptr noundef %1) #9
  store ptr %21, ptr %0, align 8
  %22 = icmp eq ptr %21, null
  br i1 %22, label %lzma_lzma_decoder_create.exit, label %23

23:                                               ; preds = %20
  %24 = getelementptr inbounds nuw i8, ptr %0, i64 8
  store ptr @lzma_decode, ptr %24, align 8
  %25 = getelementptr inbounds nuw i8, ptr %0, i64 16
  store ptr @lzma_decoder_reset, ptr %25, align 8
  %26 = getelementptr inbounds nuw i8, ptr %0, i64 24
  store ptr @lzma_decoder_uncompressed, ptr %26, align 8
  br label %27

27:                                               ; preds = %17, %23
  %28 = load i32, ptr %2, align 8
  %29 = zext i32 %28 to i64
  store i64 %29, ptr %3, align 8
  %30 = getelementptr inbounds nuw i8, ptr %2, i64 8
  %31 = load ptr, ptr %30, align 8
  %32 = getelementptr inbounds nuw i8, ptr %3, i64 8
  store ptr %31, ptr %32, align 8
  %33 = getelementptr inbounds nuw i8, ptr %2, i64 16
  %34 = load i32, ptr %33, align 8
  %35 = zext i32 %34 to i64
  %36 = getelementptr inbounds nuw i8, ptr %3, i64 16
  store i64 %35, ptr %36, align 8
  %37 = load ptr, ptr %0, align 8
  tail call void @lzma_decoder_reset(ptr noundef %37, ptr noundef nonnull %2)
  %38 = load ptr, ptr %0, align 8
  %39 = getelementptr inbounds nuw i8, ptr %38, i64 28312
  store i64 -1, ptr %39, align 8
  br label %lzma_lzma_decoder_create.exit

lzma_lzma_decoder_create.exit:                    ; preds = %4, %8, %20, %is_lclppb_valid.exit, %27
  %.0 = phi i32 [ 0, %27 ], [ 11, %is_lclppb_valid.exit ], [ 5, %20 ], [ 11, %8 ], [ 11, %4 ]
  ret i32 %.0
}